target datalayout = "e-m:e-p270:32:32-p271:32:32-p272:64:64-i64:64-i128:128-f80:128-n8:16:32:64-S128"
target triple = "x86_64-pc-linux-gnu"

%struct.EllipseEquation = type { [7 x double] }
%struct.Circle = type { double, double, double, double, double, ptr, ptr, i32, %struct.EllipseEquation, double, i8, double, double }

; Function Attrs: mustprogress nounwind uwtable
define hidden void @_ZN2cv8ximgproc15EdgeDrawingImpl11sortCirclesEP6Circlei(ptr noundef %0, i32 noundef %1) #8 align 2 {
  %3 = alloca ptr, align 8
  %4 = alloca i32, align 4
  %5 = alloca i32, align 4
  %6 = alloca i32, align 4
  %7 = alloca i32, align 4
  %8 = alloca i32, align 4
  %9 = alloca %struct.Circle, align 8
  store ptr %0, ptr %3, align 8, !tbaa !412
  store i32 %1, ptr %4, align 4, !tbaa !8
  call void @llvm.lifetime.start.p0(i64 4, ptr %5) #3
  store i32 0, ptr %5, align 4, !tbaa !8
  br label %10

10:                                               ; preds = %67, %2
  %11 = load i32, ptr %5, align 4, !tbaa !8
  %12 = load i32, ptr %4, align 4, !tbaa !8
  %13 = sub nsw i32 %12, 1
  %14 = icmp slt i32 %11, %13
  br i1 %14, label %16, label %15

15:                                               ; preds = %10
  store i32 2, ptr %6, align 4
  call void @llvm.lifetime.end.p0(i64 4, ptr %5) #3
  br label %70

16:                                               ; preds = %10
  call void @llvm.lifetime.start.p0(i64 4, ptr %7) #3
  %17 = load i32, ptr %5, align 4, !tbaa !8
  store i32 %17, ptr %7, align 4, !tbaa !8
  call void @llvm.lifetime.start.p0(i64 4, ptr %8) #3
  %18 = load i32, ptr %5, align 4, !tbaa !8
  %19 = add nsw i32 %18, 1
  store i32 %19, ptr %8, align 4, !tbaa !8
  br label %20

20:                                               ; preds = %42, %16
  %21 = load i32, ptr %8, align 4, !tbaa !8
  %22 = load i32, ptr %4, align 4, !tbaa !8
  %23 = icmp slt i32 %21, %22
  br i1 %23, label %25, label %24

24:                                               ; preds = %20
  store i32 5, ptr %6, align 4
  call void @llvm.lifetime.end.p0(i64 4, ptr %8) #3
  br label %45

25:                                               ; preds = %20
  %26 = load ptr, ptr %3, align 8, !tbaa !412
  %27 = load i32, ptr %8, align 4, !tbaa !8
  %28 = sext i32 %27 to i64
  %29 = getelementptr inbounds %struct.Circle, ptr %26, i64 %28
  %30 = getelementptr inbounds nuw %struct.Circle, ptr %29, i32 0, i32 2
  %31 = load double, ptr %30, align 8, !tbaa !406
  %32 = load ptr, ptr %3, align 8, !tbaa !412
  %33 = load i32, ptr %7, align 4, !tbaa !8
  %34 = sext i32 %33 to i64
  %35 = getelementptr inbounds %struct.Circle, ptr %32, i64 %34
  %36 = getelementptr inbounds nuw %struct.Circle, ptr %35, i32 0, i32 2
  %37 = load double, ptr %36, align 8, !tbaa !406
  %38 = fcmp ogt double %31, %37
  br i1 %38, label %39, label %41

39:                                               ; preds = %25
  %40 = load i32, ptr %8, align 4, !tbaa !8
  store i32 %40, ptr %7, align 4, !tbaa !8
  br label %41

41:                                               ; preds = %39, %25
  br label %42

42:                                               ; preds = %41
  %43 = load i32, ptr %8, align 4, !tbaa !8
  %44 = add nsw i32 %43, 1
  store i32 %44, ptr %8, align 4, !tbaa !8
  br label %20, !llvm.loop !563

45:                                               ; preds = %24
  %46 = load i32, ptr %7, align 4, !tbaa !8
  %47 = load i32, ptr %5, align 4, !tbaa !8
  %48 = icmp ne i32 %46, %47
  br i1 %48, label %49, label %66

49:                                               ; preds = %45
  call void @llvm.lifetime.start.p0(i64 152, ptr %9) #3
  %50 = load ptr, ptr %3, align 8, !tbaa !412
  %51 = load i32, ptr %5, align 4, !tbaa !8
  %52 = sext i32 %51 to i64
  %53 = getelementptr inbounds %struct.Circle, ptr %50, i64 %52
  call void @llvm.memcpy.p0.p0.i64(ptr align 8 %9, ptr align 8 %53, i64 152, i1 false), !tbaa.struct !524
  %54 = load ptr, ptr %3, align 8, !tbaa !412
  %55 = load i32, ptr %7, align 4, !tbaa !8
  %56 = sext i32 %55 to i64
  %57 = getelementptr inbounds %struct.Circle, ptr %54, i64 %56
  %58 = load ptr, ptr %3, align 8, !tbaa !412
  %59 = load i32, ptr %5, align 4, !tbaa !8
  %60 = sext i32 %59 to i64
  %61 = getelementptr inbounds %struct.Circle, ptr %58, i64 %60
  call void @llvm.memcpy.p0.p0.i64(ptr align 8 %61, ptr align 8 %57, i64 152, i1 false), !tbaa.struct !524
  %62 = load ptr, ptr %3, align 8, !tbaa !412
  %63 = load i32, ptr %7, align 4, !tbaa !8
  %64 = sext i32 %63 to i64
  %65 = getelementptr inbounds %struct.Circle, ptr %62, i64 %64
  call void @llvm.memcpy.p0.p0.i64(ptr align 8 %65, ptr align 8 %9, i64 152, i1 false), !tbaa.struct !524
  call void @llvm.lifetime.end.p0(i64 152, ptr %9) #3
  br label %66

66:                                               ; preds = %49, %45
  call void @llvm.lifetime.end.p0(i64 4, ptr %7) #3
  br label %67

67:                                               ; preds = %66
  %68 = load i32, ptr %5, align 4, !tbaa !8
  %69 = add nsw i32 %68, 1
  store i32 %69, ptr %5, align 4, !tbaa !8
  br label %10, !llvm.loop !564

70:                                               ; preds = %15
  ret void
}