; Function Attrs: mustprogress nofree norecurse nosync nounwind memory(argmem: readwrite) uwtable
define hidden void @_ZN2cv8ximgproc15EdgeDrawingImpl11sortCirclesEP6Circlei(ptr noundef captures(none) %0, i32 noundef %1) local_unnamed_addr #12 align 2 {
  %3 = alloca %struct.Circle, align 8
  %4 = icmp sgt i32 %1, 1
  br i1 %4, label %.lr.ph28.preheader, label %._crit_edge29

.lr.ph28.preheader:                               ; preds = %2
  %5 = add nsw i32 %1, -1
  %wide.trip.count36 = zext nneg i32 %5 to i64
  %wide.trip.count = zext nneg i32 %1 to i64
  br label %.lr.ph.preheader

._crit_edge29:                                    ; preds = %19, %2
  ret void

.lr.ph.preheader:                                 ; preds = %19, %.lr.ph28.preheader
  %indvars.iv33 = phi i64 [ 0, %.lr.ph28.preheader ], [ %indvars.iv.next34, %19 ]
  %indvars.iv = phi i64 [ 1, %.lr.ph28.preheader ], [ %indvars.iv.next, %19 ]
  %indvars.iv.next34 = add nuw nsw i64 %indvars.iv33, 1
  %6 = trunc nuw nsw i64 %indvars.iv33 to i32
  br label %.lr.ph

._crit_edge:                                      ; preds = %.lr.ph
  %7 = zext i32 %.1 to i64
  %.not = icmp eq i64 %indvars.iv33, %7
  br i1 %.not, label %19, label %15

.lr.ph:                                           ; preds = %.lr.ph.preheader, %.lr.ph
  %indvars.iv30 = phi i64 [ %indvars.iv, %.lr.ph.preheader ], [ %indvars.iv.next31, %.lr.ph ]
  %.02224 = phi i32 [ %6, %.lr.ph.preheader ], [ %.1, %.lr.ph ]
  %8 = getelementptr inbounds nuw %struct.Circle, ptr %0, i64 %indvars.iv30, i32 2
  %9 = load double, ptr %8, align 8, !tbaa !370
  %10 = sext i32 %.02224 to i64
  %11 = getelementptr inbounds %struct.Circle, ptr %0, i64 %10, i32 2
  %12 = load double, ptr %11, align 8, !tbaa !370
  %13 = fcmp ogt double %9, %12
  %14 = trunc nuw nsw i64 %indvars.iv30 to i32
  %.1 = select i1 %13, i32 %14, i32 %.02224
  %indvars.iv.next31 = add nuw nsw i64 %indvars.iv30, 1
  %exitcond.not = icmp eq i64 %indvars.iv.next31, %wide.trip.count
  br i1 %exitcond.not, label %._crit_edge, label %.lr.ph, !llvm.loop !508

15:                                               ; preds = %._crit_edge
  call void @llvm.lifetime.start.p0(i64 152, ptr nonnull %3)
  %16 = getelementptr inbounds nuw %struct.Circle, ptr %0, i64 %indvars.iv33
  call void @llvm.memcpy.p0.p0.i64(ptr noundef nonnull align 8 dereferenceable(152) %3, ptr noundef nonnull align 8 dereferenceable(152) %16, i64 152, i1 false), !tbaa.struct !507
  %17 = sext i32 %.1 to i64
  %18 = getelementptr inbounds %struct.Circle, ptr %0, i64 %17
  tail call void @llvm.memcpy.p0.p0.i64(ptr noundef nonnull align 8 dereferenceable(152) %16, ptr noundef nonnull align 8 dereferenceable(152) %18, i64 152, i1 false), !tbaa.struct !507
  call void @llvm.memcpy.p0.p0.i64(ptr noundef nonnull align 8 dereferenceable(152) %18, ptr noundef nonnull align 8 dereferenceable(152) %3, i64 152, i1 false), !tbaa.struct !507
  call void @llvm.lifetime.end.p0(i64 152, ptr nonnull %3)
  br label %19

19:                                               ; preds = %15, %._crit_edge
  %indvars.iv.next = add nuw nsw i64 %indvars.iv, 1
  %exitcond37.not = icmp eq i64 %indvars.iv.next34, %wide.trip.count36
  br i1 %exitcond37.not, label %._crit_edge29, label %.lr.ph.preheader, !llvm.loop !509
}